
attiny_24.elf:     file format elf32-avr

Sections:
Idx Name          Size      VMA       LMA       File off  Algn
  0 .text         000001a4  00000000  00000000  00000094  2**1
                  CONTENTS, ALLOC, LOAD, READONLY, CODE
  1 .data         00000000  00800060  000001a4  00000238  2**0
                  CONTENTS, ALLOC, LOAD, DATA
  2 .bss          0000000a  00800060  00800060  00000238  2**0
                  ALLOC
  3 .stab         000006cc  00000000  00000000  00000238  2**2
                  CONTENTS, READONLY, DEBUGGING
  4 .stabstr      00000097  00000000  00000000  00000904  2**0
                  CONTENTS, READONLY, DEBUGGING
  5 .comment      0000002f  00000000  00000000  0000099b  2**0
                  CONTENTS, READONLY

Disassembly of section .text:

00000000 <__vectors>:
   0:	10 c0       	rjmp	.+32     	; 0x22 <__ctors_end>
   2:	1f c0       	rjmp	.+62     	; 0x42 <__bad_interrupt>
   4:	1e c0       	rjmp	.+60     	; 0x42 <__bad_interrupt>
   6:	1d c0       	rjmp	.+58     	; 0x42 <__bad_interrupt>
   8:	1c c0       	rjmp	.+56     	; 0x42 <__bad_interrupt>
   a:	1b c0       	rjmp	.+54     	; 0x42 <__bad_interrupt>
   c:	1a c0       	rjmp	.+52     	; 0x42 <__bad_interrupt>
   e:	19 c0       	rjmp	.+50     	; 0x42 <__bad_interrupt>
  10:	18 c0       	rjmp	.+48     	; 0x42 <__bad_interrupt>
  12:	44 c0       	rjmp	.+136    	; 0x9c <__vector_9>
  14:	16 c0       	rjmp	.+44     	; 0x42 <__bad_interrupt>
  16:	15 c0       	rjmp	.+42     	; 0x42 <__bad_interrupt>
  18:	14 c0       	rjmp	.+40     	; 0x42 <__bad_interrupt>
  1a:	13 c0       	rjmp	.+38     	; 0x42 <__bad_interrupt>
  1c:	12 c0       	rjmp	.+36     	; 0x42 <__bad_interrupt>
  1e:	11 c0       	rjmp	.+34     	; 0x42 <__bad_interrupt>
  20:	10 c0       	rjmp	.+32     	; 0x42 <__bad_interrupt>

00000022 <__ctors_end>:
  22:	11 24       	eor	r1, r1
  24:	1f be       	out	0x3f, r1	; 63
  26:	cf e5       	ldi	r28, 0x5F	; 95
  28:	d1 e0       	ldi	r29, 0x01	; 1
  2a:	de bf       	out	0x3e, r29	; 62
  2c:	cd bf       	out	0x3d, r28	; 61

0000002e <__do_clear_bss>:
  2e:	20 e0       	ldi	r18, 0x00	; 0
  30:	a0 e6       	ldi	r26, 0x60	; 96
  32:	b0 e0       	ldi	r27, 0x00	; 0
  34:	01 c0       	rjmp	.+2      	; 0x38 <.do_clear_bss_start>

00000036 <.do_clear_bss_loop>:
  36:	1d 92       	st	X+, r1

00000038 <.do_clear_bss_start>:
  38:	aa 36       	cpi	r26, 0x6A	; 106
  3a:	b2 07       	cpc	r27, r18
  3c:	e1 f7       	brne	.-8      	; 0x36 <.do_clear_bss_loop>
  3e:	0f d0       	rcall	.+30     	; 0x5e <main>
  40:	af c0       	rjmp	.+350    	; 0x1a0 <_exit>

00000042 <__bad_interrupt>:
  42:	de cf       	rjmp	.-68     	; 0x0 <__vectors>

00000044 <timer_init>:
  44:	80 b7       	in	r24, 0x30	; 48
  46:	82 60       	ori	r24, 0x02	; 2
  48:	80 bf       	out	0x30, r24	; 48
  4a:	87 e2       	ldi	r24, 0x27	; 39
  4c:	86 bf       	out	0x36, r24	; 54
  4e:	89 b7       	in	r24, 0x39	; 57
  50:	82 60       	ori	r24, 0x02	; 2
  52:	89 bf       	out	0x39, r24	; 57
  54:	08 95       	ret

00000056 <start_timer>:
  56:	83 b7       	in	r24, 0x33	; 51
  58:	85 60       	ori	r24, 0x05	; 5
  5a:	83 bf       	out	0x33, r24	; 51
  5c:	08 95       	ret

0000005e <main>:
  5e:	f2 df       	rcall	.-28     	; 0x44 <timer_init>
  60:	8f ef       	ldi	r24, 0xFF	; 255
  62:	8a bb       	out	0x1a, r24	; 26
  64:	d7 9a       	sbi	0x1a, 7	; 26
  66:	c0 9a       	sbi	0x18, 0	; 24
  68:	78 94       	sei
  6a:	c1 11       	cpse	r28, r1
  6c:	10 c0       	rjmp	.+32     	; 0x8e <main+0x30>
  6e:	b0 99       	sbic	0x16, 0	; 22
  70:	fe cf       	rjmp	.-4      	; 0x6e <main+0x10>
  72:	8b b3       	in	r24, 0x1b	; 27
  74:	80 58       	subi	r24, 0x80	; 128
  76:	8b bb       	out	0x1b, r24	; 27
  78:	83 ed       	ldi	r24, 0xD3	; 211
  7a:	90 e3       	ldi	r25, 0x30	; 48
  7c:	01 97       	sbiw	r24, 0x01	; 1
  7e:	f1 f7       	brne	.-4      	; 0x7c <main+0x1e>
  80:	00 c0       	rjmp	.+0      	; 0x82 <main+0x24>
  82:	00 00       	nop
  84:	8b b3       	in	r24, 0x1b	; 27
  86:	80 58       	subi	r24, 0x80	; 128
  88:	8b bb       	out	0x1b, r24	; 27
  8a:	e5 df       	rcall	.-54     	; 0x56 <start_timer>
  8c:	c1 e0       	ldi	r28, 0x01	; 1
  8e:	b0 9b       	sbis	0x16, 0	; 22
  90:	ec cf       	rjmp	.-40     	; 0x6a <main+0xc>
  92:	cf 5f       	subi	r28, 0xFF	; 255
  94:	ea cf       	rjmp	.-44     	; 0x6a <main+0xc>

00000096 <stop_timer>:
  96:	83 b7       	in	r24, 0x33	; 51
  98:	13 be       	out	0x33, r1	; 51
  9a:	08 95       	ret

0000009c <__vector_9>:
  9c:	1f 92       	push	r1
  9e:	0f 92       	push	r0
  a0:	0f b6       	in	r0, 0x3f	; 63
  a2:	0f 92       	push	r0
  a4:	11 24       	eor	r1, r1
  a6:	2f 93       	push	r18
  a8:	3f 93       	push	r19
  aa:	4f 93       	push	r20
  ac:	5f 93       	push	r21
  ae:	6f 93       	push	r22
  b0:	7f 93       	push	r23
  b2:	8f 93       	push	r24
  b4:	9f 93       	push	r25
  b6:	af 93       	push	r26
  b8:	bf 93       	push	r27
  ba:	ef 93       	push	r30
  bc:	ff 93       	push	r31
  be:	90 91 63 00 	lds	r25, 0x0063
  c2:	89 2f       	mov	r24, r25
  c4:	8f 5f       	subi	r24, 0xFF	; 255
  c6:	80 93 63 00 	sts	0x0063, r24
  ca:	80 91 62 00 	lds	r24, 0x0062
  ce:	8f 5f       	subi	r24, 0xFF	; 255
  d0:	80 93 62 00 	sts	0x0062, r24
  d4:	80 91 61 00 	lds	r24, 0x0061
  d8:	8f 5f       	subi	r24, 0xFF	; 255
  da:	80 93 61 00 	sts	0x0061, r24
  de:	98 30       	cpi	r25, 0x08	; 8
  e0:	20 f4       	brcc	.+8      	; 0xea <__vector_9+0x4e>
  e2:	8b b3       	in	r24, 0x1b	; 27
  e4:	91 e0       	ldi	r25, 0x01	; 1
  e6:	89 27       	eor	r24, r25
  e8:	8b bb       	out	0x1b, r24	; 27
  ea:	90 91 63 00 	lds	r25, 0x0063
  ee:	89 2f       	mov	r24, r25
  f0:	89 50       	subi	r24, 0x09	; 9
  f2:	88 30       	cpi	r24, 0x08	; 8
  f4:	40 f4       	brcc	.+16     	; 0x106 <__vector_9+0x6a>
  f6:	8b b3       	in	r24, 0x1b	; 27
  f8:	22 e0       	ldi	r18, 0x02	; 2
  fa:	82 27       	eor	r24, r18
  fc:	8b bb       	out	0x1b, r24	; 27
  fe:	90 31       	cpi	r25, 0x10	; 16
 100:	10 f0       	brcs	.+4      	; 0x106 <__vector_9+0x6a>
 102:	10 92 63 00 	sts	0x0063, r1
 106:	80 91 62 00 	lds	r24, 0x0062
 10a:	83 50       	subi	r24, 0x03	; 3
 10c:	88 30       	cpi	r24, 0x08	; 8
 10e:	20 f4       	brcc	.+8      	; 0x118 <__vector_9+0x7c>
 110:	8b b3       	in	r24, 0x1b	; 27
 112:	94 e0       	ldi	r25, 0x04	; 4
 114:	89 27       	eor	r24, r25
 116:	8b bb       	out	0x1b, r24	; 27
 118:	90 91 62 00 	lds	r25, 0x0062
 11c:	89 2f       	mov	r24, r25
 11e:	8b 50       	subi	r24, 0x0B	; 11
 120:	88 30       	cpi	r24, 0x08	; 8
 122:	48 f4       	brcc	.+18     	; 0x136 <__vector_9+0x9a>
 124:	8b b3       	in	r24, 0x1b	; 27
 126:	28 e0       	ldi	r18, 0x08	; 8
 128:	82 27       	eor	r24, r18
 12a:	8b bb       	out	0x1b, r24	; 27
 12c:	92 31       	cpi	r25, 0x12	; 18
 12e:	18 f0       	brcs	.+6      	; 0x136 <__vector_9+0x9a>
 130:	82 e0       	ldi	r24, 0x02	; 2
 132:	80 93 62 00 	sts	0x0062, r24
 136:	80 91 61 00 	lds	r24, 0x0061
 13a:	85 50       	subi	r24, 0x05	; 5
 13c:	88 30       	cpi	r24, 0x08	; 8
 13e:	20 f4       	brcc	.+8      	; 0x148 <__vector_9+0xac>
 140:	8b b3       	in	r24, 0x1b	; 27
 142:	90 e1       	ldi	r25, 0x10	; 16
 144:	89 27       	eor	r24, r25
 146:	8b bb       	out	0x1b, r24	; 27
 148:	90 91 61 00 	lds	r25, 0x0061
 14c:	89 2f       	mov	r24, r25
 14e:	8d 50       	subi	r24, 0x0D	; 13
 150:	88 30       	cpi	r24, 0x08	; 8
 152:	70 f4       	brcc	.+28     	; 0x170 <__stack+0x11>
 154:	8b b3       	in	r24, 0x1b	; 27
 156:	20 e2       	ldi	r18, 0x20	; 32
 158:	82 27       	eor	r24, r18
 15a:	8b bb       	out	0x1b, r24	; 27
 15c:	94 31       	cpi	r25, 0x14	; 20
 15e:	40 f0       	brcs	.+16     	; 0x170 <__stack+0x11>
 160:	84 e0       	ldi	r24, 0x04	; 4
 162:	80 93 61 00 	sts	0x0061, r24
 166:	80 91 60 00 	lds	r24, 0x0060
 16a:	8f 5f       	subi	r24, 0xFF	; 255
 16c:	80 93 60 00 	sts	0x0060, r24
 170:	80 91 60 00 	lds	r24, 0x0060
 174:	82 31       	cpi	r24, 0x12	; 18
 176:	18 f0       	brcs	.+6      	; 0x17e <__stack+0x1f>
 178:	8e df       	rcall	.-228    	; 0x96 <stop_timer>
 17a:	10 92 60 00 	sts	0x0060, r1
 17e:	ff 91       	pop	r31
 180:	ef 91       	pop	r30
 182:	bf 91       	pop	r27
 184:	af 91       	pop	r26
 186:	9f 91       	pop	r25
 188:	8f 91       	pop	r24
 18a:	7f 91       	pop	r23
 18c:	6f 91       	pop	r22
 18e:	5f 91       	pop	r21
 190:	4f 91       	pop	r20
 192:	3f 91       	pop	r19
 194:	2f 91       	pop	r18
 196:	0f 90       	pop	r0
 198:	0f be       	out	0x3f, r0	; 63
 19a:	0f 90       	pop	r0
 19c:	1f 90       	pop	r1
 19e:	18 95       	reti

000001a0 <_exit>:
 1a0:	f8 94       	cli

000001a2 <__stop_program>:
 1a2:	ff cf       	rjmp	.-2      	; 0x1a2 <__stop_program>
